target datalayout = "e-m:e-p270:32:32-p271:32:32-p272:64:64-i64:64-i128:128-f80:128-n8:16:32:64-S128"
target triple = "x86_64-pc-linux-gnu"

; Function Attrs: nounwind uwtable
define internal i32 @archive_utility_string_sort_helper(ptr noundef %0, i32 noundef %1) #0 {
  %3 = alloca i32, align 4
  %4 = alloca ptr, align 8
  %5 = alloca i32, align 4
  %6 = alloca i32, align 4
  %7 = alloca i32, align 4
  %8 = alloca i32, align 4
  %9 = alloca ptr, align 8
  %10 = alloca ptr, align 8
  %11 = alloca ptr, align 8
  %12 = alloca ptr, align 8
  %13 = alloca i32, align 4
  %14 = alloca i32, align 4
  %15 = alloca i32, align 4
  store ptr %0, ptr %4, align 8, !tbaa !32
  store i32 %1, ptr %5, align 4, !tbaa !23
  call void @llvm.lifetime.start.p0(i64 4, ptr %6) #9
  call void @llvm.lifetime.start.p0(i64 4, ptr %7) #9
  call void @llvm.lifetime.start.p0(i64 4, ptr %8) #9
  call void @llvm.lifetime.start.p0(i64 8, ptr %9) #9
  call void @llvm.lifetime.start.p0(i64 8, ptr %10) #9
  call void @llvm.lifetime.start.p0(i64 8, ptr %11) #9
  call void @llvm.lifetime.start.p0(i64 8, ptr %12) #9
  call void @llvm.lifetime.start.p0(i64 4, ptr %13) #9
  call void @llvm.lifetime.start.p0(i64 4, ptr %14) #9
  %16 = load i32, ptr %5, align 4, !tbaa !23
  %17 = icmp ule i32 %16, 1
  br i1 %17, label %18, label %19

18:                                               ; preds = %2
  store i32 0, ptr %3, align 4
  store i32 1, ptr %15, align 4
  br label %152

19:                                               ; preds = %2
  store i32 0, ptr %8, align 4, !tbaa !23
  store i32 0, ptr %7, align 4, !tbaa !23
  store ptr null, ptr %10, align 8, !tbaa !32
  store ptr null, ptr %9, align 8, !tbaa !32
  %20 = load ptr, ptr %4, align 8, !tbaa !32
  %21 = getelementptr inbounds ptr, ptr %20, i64 0
  %22 = load ptr, ptr %21, align 8, !tbaa !24
  store ptr %22, ptr %12, align 8, !tbaa !24
  store i32 1, ptr %6, align 4, !tbaa !23
  br label %23

23:                                               ; preds = %87, %19
  %24 = load i32, ptr %6, align 4, !tbaa !23
  %25 = load i32, ptr %5, align 4, !tbaa !23
  %26 = icmp ult i32 %24, %25
  br i1 %26, label %27, label %90

27:                                               ; preds = %23
  %28 = load ptr, ptr %4, align 8, !tbaa !32
  %29 = load i32, ptr %6, align 4, !tbaa !23
  %30 = zext i32 %29 to i64
  %31 = getelementptr inbounds nuw ptr, ptr %28, i64 %30
  %32 = load ptr, ptr %31, align 8, !tbaa !24
  %33 = load ptr, ptr %12, align 8, !tbaa !24
  %34 = call i32 @strcmp(ptr noundef %32, ptr noundef %33) #10
  %35 = icmp slt i32 %34, 0
  br i1 %35, label %36, label %61

36:                                               ; preds = %27
  %37 = load i32, ptr %7, align 4, !tbaa !23
  %38 = add i32 %37, 1
  store i32 %38, ptr %7, align 4, !tbaa !23
  %39 = load ptr, ptr %9, align 8, !tbaa !32
  %40 = load i32, ptr %7, align 4, !tbaa !23
  %41 = zext i32 %40 to i64
  %42 = mul i64 %41, 8
  %43 = call ptr @realloc(ptr noundef %39, i64 noundef %42) #12
  store ptr %43, ptr %11, align 8, !tbaa !32
  %44 = load ptr, ptr %11, align 8, !tbaa !32
  %45 = icmp ne ptr %44, null
  br i1 %45, label %49, label %46

46:                                               ; preds = %36
  %47 = load ptr, ptr %10, align 8, !tbaa !32
  call void @free(ptr noundef %47) #9
  %48 = load ptr, ptr %9, align 8, !tbaa !32
  call void @free(ptr noundef %48) #9
  store i32 -30, ptr %3, align 4
  store i32 1, ptr %15, align 4
  br label %152

49:                                               ; preds = %36
  %50 = load ptr, ptr %11, align 8, !tbaa !32
  store ptr %50, ptr %9, align 8, !tbaa !32
  %51 = load ptr, ptr %4, align 8, !tbaa !32
  %52 = load i32, ptr %6, align 4, !tbaa !23
  %53 = zext i32 %52 to i64
  %54 = getelementptr inbounds nuw ptr, ptr %51, i64 %53
  %55 = load ptr, ptr %54, align 8, !tbaa !24
  %56 = load ptr, ptr %9, align 8, !tbaa !32
  %57 = load i32, ptr %7, align 4, !tbaa !23
  %58 = sub i32 %57, 1
  %59 = zext i32 %58 to i64
  %60 = getelementptr inbounds nuw ptr, ptr %56, i64 %59
  store ptr %55, ptr %60, align 8, !tbaa !24
  br label %86

61:                                               ; preds = %27
  %62 = load i32, ptr %8, align 4, !tbaa !23
  %63 = add i32 %62, 1
  store i32 %63, ptr %8, align 4, !tbaa !23
  %64 = load ptr, ptr %10, align 8, !tbaa !32
  %65 = load i32, ptr %8, align 4, !tbaa !23
  %66 = zext i32 %65 to i64
  %67 = mul i64 %66, 8
  %68 = call ptr @realloc(ptr noundef %64, i64 noundef %67) #12
  store ptr %68, ptr %11, align 8, !tbaa !32
  %69 = load ptr, ptr %11, align 8, !tbaa !32
  %70 = icmp ne ptr %69, null
  br i1 %70, label %74, label %71

71:                                               ; preds = %61
  %72 = load ptr, ptr %10, align 8, !tbaa !32
  call void @free(ptr noundef %72) #9
  %73 = load ptr, ptr %9, align 8, !tbaa !32
  call void @free(ptr noundef %73) #9
  store i32 -30, ptr %3, align 4
  store i32 1, ptr %15, align 4
  br label %152

74:                                               ; preds = %61
  %75 = load ptr, ptr %11, align 8, !tbaa !32
  store ptr %75, ptr %10, align 8, !tbaa !32
  %76 = load ptr, ptr %4, align 8, !tbaa !32
  %77 = load i32, ptr %6, align 4, !tbaa !23
  %78 = zext i32 %77 to i64
  %79 = getelementptr inbounds nuw ptr, ptr %76, i64 %78
  %80 = load ptr, ptr %79, align 8, !tbaa !24
  %81 = load ptr, ptr %10, align 8, !tbaa !32
  %82 = load i32, ptr %8, align 4, !tbaa !23
  %83 = sub i32 %82, 1
  %84 = zext i32 %83 to i64
  %85 = getelementptr inbounds nuw ptr, ptr %81, i64 %84
  store ptr %80, ptr %85, align 8, !tbaa !24
  br label %86

86:                                               ; preds = %74, %49
  br label %87

87:                                               ; preds = %86
  %88 = load i32, ptr %6, align 4, !tbaa !23
  %89 = add i32 %88, 1
  store i32 %89, ptr %6, align 4, !tbaa !23
  br label %23, !llvm.loop !36

90:                                               ; preds = %23
  %91 = load ptr, ptr %9, align 8, !tbaa !32
  %92 = load i32, ptr %7, align 4, !tbaa !23
  %93 = call i32 @archive_utility_string_sort_helper(ptr noundef %91, i32 noundef %92)
  store i32 %93, ptr %13, align 4, !tbaa !23
  store i32 0, ptr %6, align 4, !tbaa !23
  br label %94

94:                                               ; preds = %108, %90
  %95 = load i32, ptr %6, align 4, !tbaa !23
  %96 = load i32, ptr %7, align 4, !tbaa !23
  %97 = icmp ult i32 %95, %96
  br i1 %97, label %98, label %111

98:                                               ; preds = %94
  %99 = load ptr, ptr %9, align 8, !tbaa !32
  %100 = load i32, ptr %6, align 4, !tbaa !23
  %101 = zext i32 %100 to i64
  %102 = getelementptr inbounds nuw ptr, ptr %99, i64 %101
  %103 = load ptr, ptr %102, align 8, !tbaa !24
  %104 = load ptr, ptr %4, align 8, !tbaa !32
  %105 = load i32, ptr %6, align 4, !tbaa !23
  %106 = zext i32 %105 to i64
  %107 = getelementptr inbounds nuw ptr, ptr %104, i64 %106
  store ptr %103, ptr %107, align 8, !tbaa !24
  br label %108

108:                                              ; preds = %98
  %109 = load i32, ptr %6, align 4, !tbaa !23
  %110 = add i32 %109, 1
  store i32 %110, ptr %6, align 4, !tbaa !23
  br label %94, !llvm.loop !37

111:                                              ; preds = %94
  %112 = load ptr, ptr %9, align 8, !tbaa !32
  call void @free(ptr noundef %112) #9
  %113 = load ptr, ptr %12, align 8, !tbaa !24
  %114 = load ptr, ptr %4, align 8, !tbaa !32
  %115 = load i32, ptr %7, align 4, !tbaa !23
  %116 = zext i32 %115 to i64
  %117 = getelementptr inbounds nuw ptr, ptr %114, i64 %116
  store ptr %113, ptr %117, align 8, !tbaa !24
  %118 = load ptr, ptr %10, align 8, !tbaa !32
  %119 = load i32, ptr %8, align 4, !tbaa !23
  %120 = call i32 @archive_utility_string_sort_helper(ptr noundef %118, i32 noundef %119)
  store i32 %120, ptr %14, align 4, !tbaa !23
  store i32 0, ptr %6, align 4, !tbaa !23
  br label %121

121:                                              ; preds = %138, %111
  %122 = load i32, ptr %6, align 4, !tbaa !23
  %123 = load i32, ptr %8, align 4, !tbaa !23
  %124 = icmp ult i32 %122, %123
  br i1 %124, label %125, label %141

125:                                              ; preds = %121
  %126 = load ptr, ptr %10, align 8, !tbaa !32
  %127 = load i32, ptr %6, align 4, !tbaa !23
  %128 = zext i32 %127 to i64
  %129 = getelementptr inbounds nuw ptr, ptr %126, i64 %128
  %130 = load ptr, ptr %129, align 8, !tbaa !24
  %131 = load ptr, ptr %4, align 8, !tbaa !32
  %132 = load i32, ptr %7, align 4, !tbaa !23
  %133 = add i32 %132, 1
  %134 = load i32, ptr %6, align 4, !tbaa !23
  %135 = add i32 %133, %134
  %136 = zext i32 %135 to i64
  %137 = getelementptr inbounds nuw ptr, ptr %131, i64 %136
  store ptr %130, ptr %137, align 8, !tbaa !24
  br label %138

138:                                              ; preds = %125
  %139 = load i32, ptr %6, align 4, !tbaa !23
  %140 = add i32 %139, 1
  store i32 %140, ptr %6, align 4, !tbaa !23
  br label %121, !llvm.loop !38

141:                                              ; preds = %121
  %142 = load ptr, ptr %10, align 8, !tbaa !32
  call void @free(ptr noundef %142) #9
  %143 = load i32, ptr %13, align 4, !tbaa !23
  %144 = load i32, ptr %14, align 4, !tbaa !23
  %145 = icmp slt i32 %143, %144
  br i1 %145, label %146, label %148

146:                                              ; preds = %141
  %147 = load i32, ptr %13, align 4, !tbaa !23
  br label %150

148:                                              ; preds = %141
  %149 = load i32, ptr %14, align 4, !tbaa !23
  br label %150

150:                                              ; preds = %148, %146
  %151 = phi i32 [ %147, %146 ], [ %149, %148 ]
  store i32 %151, ptr %3, align 4
  store i32 1, ptr %15, align 4
  br label %152

152:                                              ; preds = %150, %71, %46, %18
  call void @llvm.lifetime.end.p0(i64 4, ptr %14) #9
  call void @llvm.lifetime.end.p0(i64 4, ptr %13) #9
  call void @llvm.lifetime.end.p0(i64 8, ptr %12) #9
  call void @llvm.lifetime.end.p0(i64 8, ptr %11) #9
  call void @llvm.lifetime.end.p0(i64 8, ptr %10) #9
  call void @llvm.lifetime.end.p0(i64 8, ptr %9) #9
  call void @llvm.lifetime.end.p0(i64 4, ptr %8) #9
  call void @llvm.lifetime.end.p0(i64 4, ptr %7) #9
  call void @llvm.lifetime.end.p0(i64 4, ptr %6) #9
  %153 = load i32, ptr %3, align 4
  ret i32 %153
}