; Function Attrs: nounwind uwtable
define internal fastcc range(i32 -30, 1) i32 @archive_utility_string_sort_helper(ptr noundef captures(none) %0, i32 noundef %1) unnamed_addr #0 {
  %3 = icmp ult i32 %1, 2
  br i1 %3, label %43, label %4

4:                                                ; preds = %2
  %5 = load ptr, ptr %0, align 8, !tbaa !24
  %wide.trip.count = zext i32 %1 to i64
  br label %6

6:                                                ; preds = %4, %23
  %indvars.iv = phi i64 [ 1, %4 ], [ %indvars.iv.next, %23 ]
  %.05982 = phi i32 [ 0, %4 ], [ %.160, %23 ]
  %.06181 = phi ptr [ null, %4 ], [ %.162, %23 ]
  %.06380 = phi ptr [ null, %4 ], [ %.164, %23 ]
  %.06579 = phi i32 [ 0, %4 ], [ %.166, %23 ]
  %7 = getelementptr inbounds nuw ptr, ptr %0, i64 %indvars.iv
  %8 = load ptr, ptr %7, align 8, !tbaa !24
  %9 = tail call i32 @strcmp(ptr noundef nonnull dereferenceable(1) %8, ptr noundef nonnull dereferenceable(1) %5) #19
  %10 = icmp slt i32 %9, 0
  br i1 %10, label %11, label %17

11:                                               ; preds = %6
  %12 = add i32 %.05982, 1
  %13 = zext i32 %12 to i64
  %14 = shl nuw nsw i64 %13, 3
  %15 = tail call ptr @realloc(ptr noundef %.06380, i64 noundef %14) #21
  %.not70 = icmp eq ptr %15, null
  br i1 %.not70, label %16, label %23

16:                                               ; preds = %11
  tail call void @free(ptr noundef %.06181) #18
  tail call void @free(ptr noundef %.06380) #18
  br label %43

17:                                               ; preds = %6
  %18 = add i32 %.06579, 1
  %19 = zext i32 %18 to i64
  %20 = shl nuw nsw i64 %19, 3
  %21 = tail call ptr @realloc(ptr noundef %.06181, i64 noundef %20) #21
  %.not = icmp eq ptr %21, null
  br i1 %.not, label %22, label %23

22:                                               ; preds = %17
  tail call void @free(ptr noundef %.06181) #18
  tail call void @free(ptr noundef %.06380) #18
  br label %43

23:                                               ; preds = %17, %11
  %.05982.sink = phi i32 [ %.05982, %11 ], [ %.06579, %17 ]
  %.sink114 = phi ptr [ %15, %11 ], [ %21, %17 ]
  %.166 = phi i32 [ %.06579, %11 ], [ %18, %17 ]
  %.164 = phi ptr [ %15, %11 ], [ %.06380, %17 ]
  %.162 = phi ptr [ %.06181, %11 ], [ %21, %17 ]
  %.160 = phi i32 [ %12, %11 ], [ %.05982, %17 ]
  %24 = load ptr, ptr %7, align 8, !tbaa !24
  %25 = zext i32 %.05982.sink to i64
  %26 = getelementptr inbounds nuw ptr, ptr %.sink114, i64 %25
  store ptr %24, ptr %26, align 8, !tbaa !24
  %indvars.iv.next = add nuw nsw i64 %indvars.iv, 1
  %exitcond.not = icmp eq i64 %indvars.iv.next, %wide.trip.count
  br i1 %exitcond.not, label %27, label %6, !llvm.loop !27

27:                                               ; preds = %23
  %28 = tail call fastcc i32 @archive_utility_string_sort_helper(ptr noundef %.164, i32 noundef %.160)
  %.not89 = icmp eq i32 %.160, 0
  br i1 %.not89, label %._crit_edge, label %.lr.ph.preheader

.lr.ph.preheader:                                 ; preds = %27
  %wide.trip.count101 = zext i32 %.160 to i64
  br label %.lr.ph

.lr.ph:                                           ; preds = %.lr.ph.preheader, %.lr.ph
  %indvars.iv97 = phi i64 [ 0, %.lr.ph.preheader ], [ %indvars.iv.next98, %.lr.ph ]
  %29 = getelementptr inbounds nuw ptr, ptr %.164, i64 %indvars.iv97
  %30 = load ptr, ptr %29, align 8, !tbaa !24
  %31 = getelementptr inbounds nuw ptr, ptr %0, i64 %indvars.iv97
  store ptr %30, ptr %31, align 8, !tbaa !24
  %indvars.iv.next98 = add nuw nsw i64 %indvars.iv97, 1
  %exitcond102.not = icmp eq i64 %indvars.iv.next98, %wide.trip.count101
  br i1 %exitcond102.not, label %._crit_edge, label %.lr.ph, !llvm.loop !28

._crit_edge:                                      ; preds = %.lr.ph, %27
  %.pre-phi = phi i64 [ 0, %27 ], [ %wide.trip.count101, %.lr.ph ]
  tail call void @free(ptr noundef %.164) #18
  %32 = getelementptr inbounds nuw ptr, ptr %0, i64 %.pre-phi
  store ptr %5, ptr %32, align 8, !tbaa !24
  %33 = tail call fastcc i32 @archive_utility_string_sort_helper(ptr noundef %.162, i32 noundef %.166)
  %.not90 = icmp eq i32 %.166, 0
  br i1 %.not90, label %._crit_edge88, label %.lr.ph87

.lr.ph87:                                         ; preds = %._crit_edge
  %34 = add i32 %.160, 1
  %wide.trip.count107 = zext i32 %.166 to i64
  br label %35

35:                                               ; preds = %.lr.ph87, %35
  %indvars.iv103 = phi i64 [ 0, %.lr.ph87 ], [ %indvars.iv.next104, %35 ]
  %36 = getelementptr inbounds nuw ptr, ptr %.162, i64 %indvars.iv103
  %37 = load ptr, ptr %36, align 8, !tbaa !24
  %38 = trunc nuw i64 %indvars.iv103 to i32
  %39 = add i32 %34, %38
  %40 = zext i32 %39 to i64
  %41 = getelementptr inbounds nuw ptr, ptr %0, i64 %40
  store ptr %37, ptr %41, align 8, !tbaa !24
  %indvars.iv.next104 = add nuw nsw i64 %indvars.iv103, 1
  %exitcond108.not = icmp eq i64 %indvars.iv.next104, %wide.trip.count107
  br i1 %exitcond108.not, label %._crit_edge88, label %35, !llvm.loop !29

._crit_edge88:                                    ; preds = %35, %._crit_edge
  tail call void @free(ptr noundef %.162) #18
  %42 = tail call i32 @llvm.smin.i32(i32 %28, i32 %33)
  br label %43

43:                                               ; preds = %2, %._crit_edge88, %22, %16
  %.0 = phi i32 [ -30, %16 ], [ -30, %22 ], [ %42, %._crit_edge88 ], [ 0, %2 ]
  ret i32 %.0
}